target datalayout = "e-m:e-p270:32:32-p271:32:32-p272:64:64-i64:64-i128:128-f80:128-n8:16:32:64-S128"
target triple = "x86_64-pc-linux-gnu"

@.str = private unnamed_addr constant [34 x i8] c"../openssl/crypto/bio/bio_print.c\00", align 1

; Function Attrs: nounwind uwtable
define internal i32 @doapr_outch(ptr noundef %0, ptr noundef %1, ptr noundef %2, ptr noundef %3, i32 noundef %4) #0 {
  %6 = alloca i32, align 4
  %7 = alloca ptr, align 8
  %8 = alloca ptr, align 8
  %9 = alloca ptr, align 8
  %10 = alloca ptr, align 8
  %11 = alloca i32, align 4
  %12 = alloca ptr, align 8
  %13 = alloca i32, align 4
  store ptr %0, ptr %7, align 8, !tbaa !16
  store ptr %1, ptr %8, align 8, !tbaa !16
  store ptr %2, ptr %9, align 8, !tbaa !18
  store ptr %3, ptr %10, align 8, !tbaa !18
  store i32 %4, ptr %11, align 4, !tbaa !10
  %14 = load ptr, ptr %7, align 8, !tbaa !16
  %15 = load ptr, ptr %14, align 8, !tbaa !8
  %16 = icmp ne ptr %15, null
  br i1 %16, label %20, label %17

17:                                               ; preds = %5
  %18 = load ptr, ptr %8, align 8, !tbaa !16
  %19 = icmp ne ptr %18, null
  br label %20

20:                                               ; preds = %17, %5
  %21 = phi i1 [ true, %5 ], [ %19, %17 ]
  %22 = zext i1 %21 to i32
  %23 = icmp ne i32 %22, 0
  %24 = xor i1 %23, true
  %25 = xor i1 %24, true
  %26 = zext i1 %25 to i32
  %27 = sext i32 %26 to i64
  %28 = call i64 @llvm.expect.i64(i64 %27, i64 1)
  %29 = icmp ne i64 %28, 0
  br i1 %29, label %31, label %30

30:                                               ; preds = %20
  store i32 0, ptr %6, align 4
  br label %146

31:                                               ; preds = %20
  %32 = load ptr, ptr %9, align 8, !tbaa !18
  %33 = load i64, ptr %32, align 8, !tbaa !14
  %34 = load ptr, ptr %10, align 8, !tbaa !18
  %35 = load i64, ptr %34, align 8, !tbaa !14
  %36 = icmp ule i64 %33, %35
  %37 = zext i1 %36 to i32
  %38 = icmp ne i32 %37, 0
  %39 = xor i1 %38, true
  %40 = xor i1 %39, true
  %41 = zext i1 %40 to i32
  %42 = sext i32 %41 to i64
  %43 = call i64 @llvm.expect.i64(i64 %42, i64 1)
  %44 = icmp ne i64 %43, 0
  br i1 %44, label %46, label %45

45:                                               ; preds = %31
  store i32 0, ptr %6, align 4
  br label %146

46:                                               ; preds = %31
  %47 = load ptr, ptr %8, align 8, !tbaa !16
  %48 = icmp ne ptr %47, null
  br i1 %48, label %49, label %116

49:                                               ; preds = %46
  %50 = load ptr, ptr %9, align 8, !tbaa !18
  %51 = load i64, ptr %50, align 8, !tbaa !14
  %52 = load ptr, ptr %10, align 8, !tbaa !18
  %53 = load i64, ptr %52, align 8, !tbaa !14
  %54 = icmp eq i64 %51, %53
  br i1 %54, label %55, label %116

55:                                               ; preds = %49
  %56 = load ptr, ptr %10, align 8, !tbaa !18
  %57 = load i64, ptr %56, align 8, !tbaa !14
  %58 = icmp ugt i64 %57, 2147482623
  br i1 %58, label %59, label %60

59:                                               ; preds = %55
  store i32 0, ptr %6, align 4
  br label %146

60:                                               ; preds = %55
  %61 = load ptr, ptr %10, align 8, !tbaa !18
  %62 = load i64, ptr %61, align 8, !tbaa !14
  %63 = add i64 %62, 1024
  store i64 %63, ptr %61, align 8, !tbaa !14
  %64 = load ptr, ptr %8, align 8, !tbaa !16
  %65 = load ptr, ptr %64, align 8, !tbaa !8
  %66 = icmp eq ptr %65, null
  br i1 %66, label %67, label %100

67:                                               ; preds = %60
  %68 = load ptr, ptr %10, align 8, !tbaa !18
  %69 = load i64, ptr %68, align 8, !tbaa !14
  %70 = call noalias ptr @CRYPTO_malloc(i64 noundef %69, ptr noundef @.str, i32 noundef 848)
  %71 = load ptr, ptr %8, align 8, !tbaa !16
  store ptr %70, ptr %71, align 8, !tbaa !8
  %72 = icmp eq ptr %70, null
  br i1 %72, label %73, label %74

73:                                               ; preds = %67
  store i32 0, ptr %6, align 4
  br label %146

74:                                               ; preds = %67
  %75 = load ptr, ptr %9, align 8, !tbaa !18
  %76 = load i64, ptr %75, align 8, !tbaa !14
  %77 = icmp ugt i64 %76, 0
  br i1 %77, label %78, label %98

78:                                               ; preds = %74
  %79 = load ptr, ptr %7, align 8, !tbaa !16
  %80 = load ptr, ptr %79, align 8, !tbaa !8
  %81 = icmp ne ptr %80, null
  %82 = zext i1 %81 to i32
  %83 = icmp ne i32 %82, 0
  %84 = xor i1 %83, true
  %85 = xor i1 %84, true
  %86 = zext i1 %85 to i32
  %87 = sext i32 %86 to i64
  %88 = call i64 @llvm.expect.i64(i64 %87, i64 1)
  %89 = icmp ne i64 %88, 0
  br i1 %89, label %91, label %90

90:                                               ; preds = %78
  store i32 0, ptr %6, align 4
  br label %146

91:                                               ; preds = %78
  %92 = load ptr, ptr %8, align 8, !tbaa !16
  %93 = load ptr, ptr %92, align 8, !tbaa !8
  %94 = load ptr, ptr %7, align 8, !tbaa !16
  %95 = load ptr, ptr %94, align 8, !tbaa !8
  %96 = load ptr, ptr %9, align 8, !tbaa !18
  %97 = load i64, ptr %96, align 8, !tbaa !14
  call void @llvm.memcpy.p0.p0.i64(ptr align 1 %93, ptr align 1 %95, i64 %97, i1 false)
  br label %98

98:                                               ; preds = %91, %74
  %99 = load ptr, ptr %7, align 8, !tbaa !16
  store ptr null, ptr %99, align 8, !tbaa !8
  br label %115

100:                                              ; preds = %60
  call void @llvm.lifetime.start.p0(i64 8, ptr %12) #7
  %101 = load ptr, ptr %8, align 8, !tbaa !16
  %102 = load ptr, ptr %101, align 8, !tbaa !8
  %103 = load ptr, ptr %10, align 8, !tbaa !18
  %104 = load i64, ptr %103, align 8, !tbaa !14
  %105 = call ptr @CRYPTO_realloc(ptr noundef %102, i64 noundef %104, ptr noundef @.str, i32 noundef 859)
  store ptr %105, ptr %12, align 8, !tbaa !8
  %106 = load ptr, ptr %12, align 8, !tbaa !8
  %107 = icmp eq ptr %106, null
  br i1 %107, label %108, label %109

108:                                              ; preds = %100
  store i32 0, ptr %6, align 4
  store i32 1, ptr %13, align 4
  br label %112

109:                                              ; preds = %100
  %110 = load ptr, ptr %12, align 8, !tbaa !8
  %111 = load ptr, ptr %8, align 8, !tbaa !16
  store ptr %110, ptr %111, align 8, !tbaa !8
  store i32 0, ptr %13, align 4
  br label %112

112:                                              ; preds = %109, %108
  call void @llvm.lifetime.end.p0(i64 8, ptr %12) #7
  %113 = load i32, ptr %13, align 4
  switch i32 %113, label %148 [
    i32 0, label %114
    i32 1, label %146
  ]

114:                                              ; preds = %112
  br label %115

115:                                              ; preds = %114, %98
  br label %116

116:                                              ; preds = %115, %49, %46
  %117 = load ptr, ptr %9, align 8, !tbaa !18
  %118 = load i64, ptr %117, align 8, !tbaa !14
  %119 = load ptr, ptr %10, align 8, !tbaa !18
  %120 = load i64, ptr %119, align 8, !tbaa !14
  %121 = icmp ult i64 %118, %120
  br i1 %121, label %122, label %145

122:                                              ; preds = %116
  %123 = load ptr, ptr %7, align 8, !tbaa !16
  %124 = load ptr, ptr %123, align 8, !tbaa !8
  %125 = icmp ne ptr %124, null
  br i1 %125, label %126, label %135

126:                                              ; preds = %122
  %127 = load i32, ptr %11, align 4, !tbaa !10
  %128 = trunc i32 %127 to i8
  %129 = load ptr, ptr %7, align 8, !tbaa !16
  %130 = load ptr, ptr %129, align 8, !tbaa !8
  %131 = load ptr, ptr %9, align 8, !tbaa !18
  %132 = load i64, ptr %131, align 8, !tbaa !14
  %133 = add i64 %132, 1
  store i64 %133, ptr %131, align 8, !tbaa !14
  %134 = getelementptr inbounds nuw i8, ptr %130, i64 %132
  store i8 %128, ptr %134, align 1, !tbaa !22
  br label %144

135:                                              ; preds = %122
  %136 = load i32, ptr %11, align 4, !tbaa !10
  %137 = trunc i32 %136 to i8
  %138 = load ptr, ptr %8, align 8, !tbaa !16
  %139 = load ptr, ptr %138, align 8, !tbaa !8
  %140 = load ptr, ptr %9, align 8, !tbaa !18
  %141 = load i64, ptr %140, align 8, !tbaa !14
  %142 = add i64 %141, 1
  store i64 %142, ptr %140, align 8, !tbaa !14
  %143 = getelementptr inbounds nuw i8, ptr %139, i64 %141
  store i8 %137, ptr %143, align 1, !tbaa !22
  br label %144

144:                                              ; preds = %135, %126
  br label %145

145:                                              ; preds = %144, %116
  store i32 1, ptr %6, align 4
  br label %146

146:                                              ; preds = %145, %112, %90, %73, %59, %45, %30
  %147 = load i32, ptr %6, align 4
  ret i32 %147

148:                                              ; preds = %112
  unreachable
}