; Function Attrs: nounwind uwtable
define internal fastcc range(i32 0, 2) i32 @doapr_outch(ptr noundef nonnull captures(none) %0, ptr noundef captures(address_is_null) %1, ptr noundef nonnull captures(none) %2, ptr noundef nonnull captures(none) %3, i32 noundef %4) unnamed_addr #0 {
  %6 = load ptr, ptr %0, align 8, !tbaa !3
  %7 = icmp ne ptr %6, null
  %8 = icmp ne ptr %1, null
  %9 = or i1 %8, %7
  br i1 %9, label %10, label %44, !prof !11

10:                                               ; preds = %5
  %11 = load i64, ptr %2, align 8, !tbaa !8
  %12 = load i64, ptr %3, align 8, !tbaa !8
  %.not = icmp ugt i64 %11, %12
  br i1 %.not, label %44, label %13, !prof !12

13:                                               ; preds = %10
  %14 = icmp eq i64 %11, %12
  %or.cond = and i1 %8, %14
  br i1 %or.cond, label %15, label %33

15:                                               ; preds = %13
  %16 = icmp ugt i64 %11, 2147482623
  br i1 %16, label %44, label %17

17:                                               ; preds = %15
  %18 = add nuw nsw i64 %11, 1024
  store i64 %18, ptr %3, align 8, !tbaa !8
  %19 = load ptr, ptr %1, align 8, !tbaa !3
  %20 = icmp eq ptr %19, null
  br i1 %20, label %21, label %30

21:                                               ; preds = %17
  %22 = tail call noalias ptr @CRYPTO_malloc(i64 noundef %18, ptr noundef nonnull @.str, i32 noundef 848) #7
  store ptr %22, ptr %1, align 8, !tbaa !3
  %23 = icmp eq ptr %22, null
  br i1 %23, label %44, label %24

24:                                               ; preds = %21
  %25 = load i64, ptr %2, align 8, !tbaa !8
  %.not44 = icmp eq i64 %25, 0
  br i1 %.not44, label %29, label %26

26:                                               ; preds = %24
  %27 = load ptr, ptr %0, align 8, !tbaa !3
  %.not45 = icmp eq ptr %27, null
  br i1 %.not45, label %44, label %28, !prof !12

28:                                               ; preds = %26
  tail call void @llvm.memcpy.p0.p0.i64(ptr nonnull align 1 %22, ptr nonnull align 1 %27, i64 %25, i1 false)
  br label %29

29:                                               ; preds = %28, %24
  store ptr null, ptr %0, align 8, !tbaa !3
  br label %33

30:                                               ; preds = %17
  %31 = tail call ptr @CRYPTO_realloc(ptr noundef nonnull %19, i64 noundef %18, ptr noundef nonnull @.str, i32 noundef 859) #7
  %32 = icmp eq ptr %31, null
  br i1 %32, label %44, label %.thread

.thread:                                          ; preds = %30
  store ptr %31, ptr %1, align 8, !tbaa !3
  %.pre = load i64, ptr %2, align 8, !tbaa !8
  br label %33

33:                                               ; preds = %.thread, %29, %13
  %34 = phi i64 [ %.pre, %.thread ], [ %25, %29 ], [ %11, %13 ]
  %35 = load i64, ptr %3, align 8, !tbaa !8
  %36 = icmp ult i64 %34, %35
  br i1 %36, label %37, label %44

37:                                               ; preds = %33
  %38 = load ptr, ptr %0, align 8, !tbaa !3
  %.not46 = icmp eq ptr %38, null
  %39 = trunc i32 %4 to i8
  br i1 %.not46, label %40, label %.sink.split

40:                                               ; preds = %37
  %41 = load ptr, ptr %1, align 8, !tbaa !3
  br label %.sink.split

.sink.split:                                      ; preds = %37, %40
  %.sink48 = phi ptr [ %41, %40 ], [ %38, %37 ]
  %42 = add nuw i64 %34, 1
  store i64 %42, ptr %2, align 8, !tbaa !8
  %43 = getelementptr inbounds nuw i8, ptr %.sink48, i64 %34
  store i8 %39, ptr %43, align 1, !tbaa !10
  br label %44

44:                                               ; preds = %.sink.split, %30, %33, %26, %21, %15, %10, %5
  %.033 = phi i32 [ 0, %5 ], [ 0, %10 ], [ 0, %15 ], [ 0, %21 ], [ 0, %26 ], [ 1, %33 ], [ 0, %30 ], [ 1, %.sink.split ]
  ret i32 %.033
}